target datalayout = "e-m:e-p270:32:32-p271:32:32-p272:64:64-i64:64-i128:128-f80:128-n8:16:32:64-S128"
target triple = "x86_64-pc-linux-gnu"

%class.FakeRttiSupport = type <{ i64, i32, [4 x i8] }>
%class.CardTableBarrierSet = type { %class.ModRefBarrierSet, i8, ptr }
%class.ModRefBarrierSet = type { %class.BarrierSet }
%class.BarrierSet = type { ptr, %class.FakeRttiSupport, ptr, ptr, ptr, ptr, ptr }

; Function Attrs: mustprogress nounwind uwtable
define hidden void @_ZNK19CardTableBarrierSet8print_onEP12outputStream(ptr noundef nonnull align 8 dereferenceable(80) %0, ptr noundef %1) unnamed_addr #1 align 2 {
  %3 = alloca ptr, align 8
  %4 = alloca ptr, align 8
  store ptr %0, ptr %3, align 8
  store ptr %1, ptr %4, align 8
  %5 = load ptr, ptr %3, align 8
  %6 = getelementptr inbounds %class.CardTableBarrierSet, ptr %5, i32 0, i32 2
  %7 = load ptr, ptr %6, align 8
  %8 = load ptr, ptr %4, align 8
  %9 = load ptr, ptr %7, align 8
  %10 = getelementptr inbounds ptr, ptr %9, i64 3
  %11 = load ptr, ptr %10, align 8
  call void %11(ptr noundef nonnull align 8 dereferenceable(88) %7, ptr noundef %8)
  ret void
}