; Function Attrs: mustprogress nounwind uwtable
define hidden void @_ZNK19CardTableBarrierSet8print_onEP12outputStream(ptr nocapture noundef nonnull readonly align 8 dereferenceable(80) %0, ptr noundef %1) unnamed_addr #0 align 2 {
  %3 = getelementptr inbounds i8, ptr %0, i64 72
  %4 = load ptr, ptr %3, align 8
  %5 = load ptr, ptr %4, align 8
  %6 = getelementptr inbounds i8, ptr %5, i64 24
  %7 = load ptr, ptr %6, align 8
  tail call void %7(ptr noundef nonnull align 8 dereferenceable(88) %4, ptr noundef %1) #6
  ret void
}